target datalayout = "e-m:e-p270:32:32-p271:32:32-p272:64:64-i64:64-i128:128-f80:128-n8:16:32:64-S128"
target triple = "x86_64-pc-linux-gnu"

@.str.94 = private unnamed_addr constant [5 x i8] c"%.0f\00", align 1

; Function Attrs: nounwind uwtable
define internal void @_camera_configuration_notify_change(ptr noundef %0, ptr noundef %1, ptr noundef %2, ptr noundef %3) #0 {
  %5 = alloca ptr, align 8
  %6 = alloca ptr, align 8
  %7 = alloca ptr, align 8
  %8 = alloca ptr, align 8
  %9 = alloca ptr, align 8
  %10 = alloca i32, align 4
  %11 = alloca i32, align 4
  %12 = alloca ptr, align 8
  %13 = alloca i32, align 4
  %14 = alloca ptr, align 8
  %15 = alloca i32, align 4
  %16 = alloca i32, align 4
  %17 = alloca ptr, align 8
  %18 = alloca ptr, align 8
  %19 = alloca float, align 4
  %20 = alloca float, align 4
  store ptr %0, ptr %5, align 8, !tbaa !6
  store ptr %1, ptr %6, align 8, !tbaa !21
  store ptr %2, ptr %7, align 8, !tbaa !155
  store ptr %3, ptr %8, align 8, !tbaa !155
  call void @llvm.lifetime.start.p0(i64 8, ptr %9) #10
  store ptr null, ptr %9, align 8, !tbaa !63
  %21 = load ptr, ptr %7, align 8, !tbaa !155
  %22 = call i32 @gp_widget_get_name(ptr noundef %21, ptr noundef %9)
  %23 = icmp ne i32 %22, 0
  br i1 %23, label %24, label %25

24:                                               ; preds = %4
  store i32 1, ptr %10, align 4
  br label %156

25:                                               ; preds = %4
  call void @llvm.lifetime.start.p0(i64 4, ptr %11) #10
  %26 = load ptr, ptr %7, align 8, !tbaa !155
  %27 = call i32 @gp_widget_count_children(ptr noundef %26)
  store i32 %27, ptr %11, align 4, !tbaa !64
  %28 = load i32, ptr %11, align 4, !tbaa !64
  %29 = icmp sgt i32 %28, 0
  br i1 %29, label %30, label %51

30:                                               ; preds = %25
  call void @llvm.lifetime.start.p0(i64 8, ptr %12) #10
  store ptr null, ptr %12, align 8, !tbaa !155
  call void @llvm.lifetime.start.p0(i64 4, ptr %13) #10
  store i32 0, ptr %13, align 4, !tbaa !64
  br label %31

31:                                               ; preds = %47, %30
  %32 = load i32, ptr %13, align 4, !tbaa !64
  %33 = load i32, ptr %11, align 4, !tbaa !64
  %34 = icmp slt i32 %32, %33
  br i1 %34, label %36, label %35

35:                                               ; preds = %31
  store i32 2, ptr %10, align 4
  call void @llvm.lifetime.end.p0(i64 4, ptr %13) #10
  br label %50

36:                                               ; preds = %31
  %37 = load ptr, ptr %7, align 8, !tbaa !155
  %38 = load i32, ptr %13, align 4, !tbaa !64
  %39 = call i32 @gp_widget_get_child(ptr noundef %37, i32 noundef %38, ptr noundef %12)
  %40 = icmp eq i32 %39, 0
  br i1 %40, label %41, label %46

41:                                               ; preds = %36
  %42 = load ptr, ptr %5, align 8, !tbaa !6
  %43 = load ptr, ptr %6, align 8, !tbaa !21
  %44 = load ptr, ptr %12, align 8, !tbaa !155
  %45 = load ptr, ptr %8, align 8, !tbaa !155
  call void @_camera_configuration_notify_change(ptr noundef %42, ptr noundef %43, ptr noundef %44, ptr noundef %45)
  br label %46

46:                                               ; preds = %41, %36
  br label %47

47:                                               ; preds = %46
  %48 = load i32, ptr %13, align 4, !tbaa !64
  %49 = add nsw i32 %48, 1
  store i32 %49, ptr %13, align 4, !tbaa !64
  br label %31

50:                                               ; preds = %35
  call void @llvm.lifetime.end.p0(i64 8, ptr %12) #10
  br label %154

51:                                               ; preds = %25
  call void @llvm.lifetime.start.p0(i64 8, ptr %14) #10
  store ptr null, ptr %14, align 8, !tbaa !155
  %52 = load ptr, ptr %8, align 8, !tbaa !155
  %53 = load ptr, ptr %9, align 8, !tbaa !63
  %54 = call i32 @gp_widget_get_child_by_name(ptr noundef %52, ptr noundef %53, ptr noundef %14)
  %55 = icmp ne i32 %54, 0
  br i1 %55, label %56, label %57

56:                                               ; preds = %51
  store i32 1, ptr %10, align 4
  br label %151

57:                                               ; preds = %51
  call void @llvm.lifetime.start.p0(i64 4, ptr %15) #10
  call void @llvm.lifetime.start.p0(i64 4, ptr %16) #10
  %58 = load ptr, ptr %7, align 8, !tbaa !155
  %59 = call i32 @gp_widget_get_type(ptr noundef %58, ptr noundef %15)
  %60 = icmp ne i32 %59, 0
  br i1 %60, label %61, label %62

61:                                               ; preds = %57
  store i32 1, ptr %10, align 4
  br label %150

62:                                               ; preds = %57
  %63 = load ptr, ptr %14, align 8, !tbaa !155
  %64 = call i32 @gp_widget_get_type(ptr noundef %63, ptr noundef %16)
  %65 = icmp ne i32 %64, 0
  br i1 %65, label %66, label %67

66:                                               ; preds = %62
  store i32 1, ptr %10, align 4
  br label %150

67:                                               ; preds = %62
  %68 = load i32, ptr %15, align 4, !tbaa !64
  %69 = icmp eq i32 %68, 6
  br i1 %69, label %85, label %70

70:                                               ; preds = %67
  %71 = load i32, ptr %15, align 4, !tbaa !64
  %72 = icmp eq i32 %71, 2
  br i1 %72, label %85, label %73

73:                                               ; preds = %70
  %74 = load i32, ptr %15, align 4, !tbaa !64
  %75 = icmp eq i32 %74, 5
  br i1 %75, label %85, label %76

76:                                               ; preds = %73
  %77 = load i32, ptr %16, align 4, !tbaa !64
  %78 = icmp eq i32 %77, 6
  br i1 %78, label %85, label %79

79:                                               ; preds = %76
  %80 = load i32, ptr %16, align 4, !tbaa !64
  %81 = icmp eq i32 %80, 2
  br i1 %81, label %85, label %82

82:                                               ; preds = %79
  %83 = load i32, ptr %16, align 4, !tbaa !64
  %84 = icmp eq i32 %83, 5
  br i1 %84, label %85, label %149

85:                                               ; preds = %82, %79, %76, %73, %70, %67
  call void @llvm.lifetime.start.p0(i64 8, ptr %17) #10
  store ptr null, ptr %17, align 8, !tbaa !63
  call void @llvm.lifetime.start.p0(i64 8, ptr %18) #10
  store ptr null, ptr %18, align 8, !tbaa !63
  %86 = load i32, ptr %15, align 4, !tbaa !64
  %87 = icmp eq i32 %86, 3
  br i1 %87, label %88, label %100

88:                                               ; preds = %85
  call void @llvm.lifetime.start.p0(i64 4, ptr %19) #10
  %89 = load ptr, ptr %7, align 8, !tbaa !155
  %90 = call i32 @gp_widget_get_value(ptr noundef %89, ptr noundef %19)
  %91 = icmp ne i32 %90, 0
  br i1 %91, label %92, label %93

92:                                               ; preds = %88
  store i32 5, ptr %10, align 4
  br label %97

93:                                               ; preds = %88
  %94 = load float, ptr %19, align 4, !tbaa !176
  %95 = fpext reassoc nsz arcp contract afn float %94 to double
  %96 = call noalias ptr (ptr, ...) @g_strdup_printf(ptr noundef @.str.94, double noundef %95)
  store ptr %96, ptr %17, align 8, !tbaa !63
  store i32 0, ptr %10, align 4
  br label %97

97:                                               ; preds = %92, %93
  call void @llvm.lifetime.end.p0(i64 4, ptr %19) #10
  %98 = load i32, ptr %10, align 4
  switch i32 %98, label %159 [
    i32 0, label %99
    i32 5, label %138
  ]

99:                                               ; preds = %97
  br label %106

100:                                              ; preds = %85
  %101 = load ptr, ptr %7, align 8, !tbaa !155
  %102 = call i32 @gp_widget_get_value(ptr noundef %101, ptr noundef %17)
  %103 = icmp ne i32 %102, 0
  br i1 %103, label %104, label %105

104:                                              ; preds = %100
  br label %138

105:                                              ; preds = %100
  br label %106

106:                                              ; preds = %105, %99
  %107 = load i32, ptr %16, align 4, !tbaa !64
  %108 = icmp eq i32 %107, 3
  br i1 %108, label %109, label %121

109:                                              ; preds = %106
  call void @llvm.lifetime.start.p0(i64 4, ptr %20) #10
  %110 = load ptr, ptr %14, align 8, !tbaa !155
  %111 = call i32 @gp_widget_get_value(ptr noundef %110, ptr noundef %20)
  %112 = icmp ne i32 %111, 0
  br i1 %112, label %113, label %114

113:                                              ; preds = %109
  store i32 5, ptr %10, align 4
  br label %118

114:                                              ; preds = %109
  %115 = load float, ptr %20, align 4, !tbaa !176
  %116 = fpext reassoc nsz arcp contract afn float %115 to double
  %117 = call noalias ptr (ptr, ...) @g_strdup_printf(ptr noundef @.str.94, double noundef %116)
  store ptr %117, ptr %18, align 8, !tbaa !63
  store i32 0, ptr %10, align 4
  br label %118

118:                                              ; preds = %113, %114
  call void @llvm.lifetime.end.p0(i64 4, ptr %20) #10
  %119 = load i32, ptr %10, align 4
  switch i32 %119, label %159 [
    i32 0, label %120
    i32 5, label %138
  ]

120:                                              ; preds = %118
  br label %127

121:                                              ; preds = %106
  %122 = load ptr, ptr %14, align 8, !tbaa !155
  %123 = call i32 @gp_widget_get_value(ptr noundef %122, ptr noundef %18)
  %124 = icmp ne i32 %123, 0
  br i1 %124, label %125, label %126

125:                                              ; preds = %121
  br label %138

126:                                              ; preds = %121
  br label %127

127:                                              ; preds = %126, %120
  %128 = load ptr, ptr %17, align 8, !tbaa !63
  %129 = load ptr, ptr %18, align 8, !tbaa !63
  %130 = call i32 @g_strcmp0(ptr noundef %128, ptr noundef %129)
  %131 = icmp ne i32 %130, 0
  br i1 %131, label %132, label %137

132:                                              ; preds = %127
  %133 = load ptr, ptr %5, align 8, !tbaa !6
  %134 = load ptr, ptr %6, align 8, !tbaa !21
  %135 = load ptr, ptr %9, align 8, !tbaa !63
  %136 = load ptr, ptr %17, align 8, !tbaa !63
  call void @_dispatch_camera_property_value_changed(ptr noundef %133, ptr noundef %134, ptr noundef %135, ptr noundef %136)
  br label %137

137:                                              ; preds = %132, %127
  br label %138

138:                                              ; preds = %137, %118, %97, %125, %104
  %139 = load i32, ptr %15, align 4, !tbaa !64
  %140 = icmp eq i32 %139, 3
  br i1 %140, label %141, label %143

141:                                              ; preds = %138
  %142 = load ptr, ptr %17, align 8, !tbaa !63
  call void @g_free(ptr noundef %142)
  br label %143

143:                                              ; preds = %141, %138
  %144 = load i32, ptr %16, align 4, !tbaa !64
  %145 = icmp eq i32 %144, 3
  br i1 %145, label %146, label %148

146:                                              ; preds = %143
  %147 = load ptr, ptr %18, align 8, !tbaa !63
  call void @g_free(ptr noundef %147)
  br label %148

148:                                              ; preds = %146, %143
  call void @llvm.lifetime.end.p0(i64 8, ptr %18) #10
  call void @llvm.lifetime.end.p0(i64 8, ptr %17) #10
  br label %149

149:                                              ; preds = %148, %82
  store i32 0, ptr %10, align 4
  br label %150

150:                                              ; preds = %149, %66, %61
  call void @llvm.lifetime.end.p0(i64 4, ptr %16) #10
  call void @llvm.lifetime.end.p0(i64 4, ptr %15) #10
  br label %151

151:                                              ; preds = %150, %56
  call void @llvm.lifetime.end.p0(i64 8, ptr %14) #10
  %152 = load i32, ptr %10, align 4
  switch i32 %152, label %155 [
    i32 0, label %153
  ]

153:                                              ; preds = %151
  br label %154

154:                                              ; preds = %153, %50
  store i32 0, ptr %10, align 4
  br label %155

155:                                              ; preds = %154, %151
  call void @llvm.lifetime.end.p0(i64 4, ptr %11) #10
  br label %156

156:                                              ; preds = %155, %24
  call void @llvm.lifetime.end.p0(i64 8, ptr %9) #10
  %157 = load i32, ptr %10, align 4
  switch i32 %157, label %159 [
    i32 0, label %158
    i32 1, label %158
  ]

158:                                              ; preds = %156, %156
  ret void

159:                                              ; preds = %156, %97, %118
  unreachable
}