; Function Attrs: nounwind uwtable
define internal fastcc void @_camera_configuration_notify_change(ptr noundef %0, ptr noundef %1, ptr noundef %2, ptr noundef %3) unnamed_addr #0 {
  %5 = alloca ptr, align 8
  %6 = alloca ptr, align 8
  %7 = alloca ptr, align 8
  %8 = alloca i32, align 4
  %9 = alloca i32, align 4
  %10 = alloca ptr, align 8
  %11 = alloca ptr, align 8
  %12 = alloca float, align 4
  %13 = alloca float, align 4
  call void @llvm.lifetime.start.p0(i64 8, ptr nonnull %5) #15
  store ptr null, ptr %5, align 8, !tbaa !103
  %14 = call i32 @gp_widget_get_name(ptr noundef %2, ptr noundef nonnull %5) #15
  %.not = icmp eq i32 %14, 0
  br i1 %.not, label %15, label %86

15:                                               ; preds = %4
  %16 = call i32 @gp_widget_count_children(ptr noundef %2) #15
  %17 = icmp sgt i32 %16, 0
  br i1 %17, label %18, label %27

18:                                               ; preds = %15
  call void @llvm.lifetime.start.p0(i64 8, ptr nonnull %6) #15
  store ptr null, ptr %6, align 8, !tbaa !146
  br label %20

19:                                               ; preds = %25
  call void @llvm.lifetime.end.p0(i64 8, ptr nonnull %6) #15
  br label %86

20:                                               ; preds = %18, %25
  %.045 = phi i32 [ 0, %18 ], [ %26, %25 ]
  %21 = call i32 @gp_widget_get_child(ptr noundef %2, i32 noundef %.045, ptr noundef nonnull %6) #15
  %22 = icmp eq i32 %21, 0
  br i1 %22, label %23, label %25

23:                                               ; preds = %20
  %24 = load ptr, ptr %6, align 8, !tbaa !146
  call fastcc void @_camera_configuration_notify_change(ptr noundef %0, ptr noundef %1, ptr noundef %24, ptr noundef %3)
  br label %25

25:                                               ; preds = %20, %23
  %26 = add nuw nsw i32 %.045, 1
  %exitcond.not = icmp eq i32 %26, %16
  br i1 %exitcond.not, label %19, label %20

27:                                               ; preds = %15
  call void @llvm.lifetime.start.p0(i64 8, ptr nonnull %7) #15
  store ptr null, ptr %7, align 8, !tbaa !146
  %28 = load ptr, ptr %5, align 8, !tbaa !103
  %29 = call i32 @gp_widget_get_child_by_name(ptr noundef %3, ptr noundef %28, ptr noundef nonnull %7) #15
  %.not30 = icmp eq i32 %29, 0
  br i1 %.not30, label %30, label %.critedge

30:                                               ; preds = %27
  call void @llvm.lifetime.start.p0(i64 4, ptr nonnull %8) #15
  call void @llvm.lifetime.start.p0(i64 4, ptr nonnull %9) #15
  %31 = call i32 @gp_widget_get_type(ptr noundef %2, ptr noundef nonnull %8) #15
  %.not31 = icmp eq i32 %31, 0
  br i1 %.not31, label %32, label %85

32:                                               ; preds = %30
  %33 = load ptr, ptr %7, align 8, !tbaa !146
  %34 = call i32 @gp_widget_get_type(ptr noundef %33, ptr noundef nonnull %9) #15
  %.not32 = icmp eq i32 %34, 0
  br i1 %.not32, label %35, label %85

35:                                               ; preds = %32
  %36 = load i32, ptr %8, align 4, !tbaa !100
  %37 = and i32 %36, -5
  %or.cond = icmp eq i32 %37, 2
  %38 = icmp eq i32 %36, 5
  %or.cond3 = or i1 %38, %or.cond
  %39 = load i32, ptr %9, align 4
  %40 = and i32 %39, -5
  %41 = icmp eq i32 %40, 2
  %42 = icmp eq i32 %39, 5
  %43 = or i1 %42, %41
  %or.cond9 = select i1 %or.cond3, i1 true, i1 %43
  br i1 %or.cond9, label %44, label %85

44:                                               ; preds = %35
  call void @llvm.lifetime.start.p0(i64 8, ptr nonnull %10) #15
  store ptr null, ptr %10, align 8, !tbaa !103
  call void @llvm.lifetime.start.p0(i64 8, ptr nonnull %11) #15
  store ptr null, ptr %11, align 8, !tbaa !103
  %45 = icmp eq i32 %36, 3
  br i1 %45, label %46, label %52

46:                                               ; preds = %44
  call void @llvm.lifetime.start.p0(i64 4, ptr nonnull %12) #15
  %47 = call i32 @gp_widget_get_value(ptr noundef %2, ptr noundef nonnull %12) #15
  %.not34 = icmp eq i32 %47, 0
  br i1 %.not34, label %.thread, label %51

.thread:                                          ; preds = %46
  %48 = load float, ptr %12, align 4, !tbaa !198
  %49 = fpext reassoc nsz arcp contract afn float %48 to double
  %50 = call noalias ptr (ptr, ...) @g_strdup_printf(ptr noundef nonnull @.str.94, double noundef %49) #15
  store ptr %50, ptr %10, align 8, !tbaa !103
  call void @llvm.lifetime.end.p0(i64 4, ptr nonnull %12) #15
  br label %54

51:                                               ; preds = %46
  call void @llvm.lifetime.end.p0(i64 4, ptr nonnull %12) #15
  br label %74

52:                                               ; preds = %44
  %53 = call i32 @gp_widget_get_value(ptr noundef %2, ptr noundef nonnull %10) #15
  %.not33 = icmp eq i32 %53, 0
  br i1 %.not33, label %54, label %74

54:                                               ; preds = %.thread, %52
  %55 = load i32, ptr %9, align 4, !tbaa !100
  %56 = icmp eq i32 %55, 3
  br i1 %56, label %57, label %64

57:                                               ; preds = %54
  call void @llvm.lifetime.start.p0(i64 4, ptr nonnull %13) #15
  %58 = load ptr, ptr %7, align 8, !tbaa !146
  %59 = call i32 @gp_widget_get_value(ptr noundef %58, ptr noundef nonnull %13) #15
  %.not36 = icmp eq i32 %59, 0
  br i1 %.not36, label %.thread42, label %63

.thread42:                                        ; preds = %57
  %60 = load float, ptr %13, align 4, !tbaa !198
  %61 = fpext reassoc nsz arcp contract afn float %60 to double
  %62 = call noalias ptr (ptr, ...) @g_strdup_printf(ptr noundef nonnull @.str.94, double noundef %61) #15
  store ptr %62, ptr %11, align 8, !tbaa !103
  call void @llvm.lifetime.end.p0(i64 4, ptr nonnull %13) #15
  br label %67

63:                                               ; preds = %57
  call void @llvm.lifetime.end.p0(i64 4, ptr nonnull %13) #15
  br label %74

64:                                               ; preds = %54
  %65 = load ptr, ptr %7, align 8, !tbaa !146
  %66 = call i32 @gp_widget_get_value(ptr noundef %65, ptr noundef nonnull %11) #15
  %.not35 = icmp eq i32 %66, 0
  br i1 %.not35, label %._crit_edge, label %74

._crit_edge:                                      ; preds = %64
  %.pre = load ptr, ptr %11, align 8, !tbaa !103
  br label %67

67:                                               ; preds = %._crit_edge, %.thread42
  %68 = phi ptr [ %.pre, %._crit_edge ], [ %62, %.thread42 ]
  %69 = load ptr, ptr %10, align 8, !tbaa !103
  %70 = call i32 @g_strcmp0(ptr noundef %69, ptr noundef %68) #15
  %.not37 = icmp eq i32 %70, 0
  br i1 %.not37, label %74, label %71

71:                                               ; preds = %67
  %72 = load ptr, ptr %5, align 8, !tbaa !103
  %73 = load ptr, ptr %10, align 8, !tbaa !103
  call fastcc void @_dispatch_camera_property_value_changed(ptr noundef %0, ptr noundef %1, ptr noundef %72, ptr noundef %73)
  br label %74

74:                                               ; preds = %63, %51, %67, %71, %64, %52
  %75 = load i32, ptr %8, align 4, !tbaa !100
  %76 = icmp eq i32 %75, 3
  br i1 %76, label %77, label %79

77:                                               ; preds = %74
  %78 = load ptr, ptr %10, align 8, !tbaa !103
  call void @g_free(ptr noundef %78) #15
  br label %79

79:                                               ; preds = %77, %74
  %80 = load i32, ptr %9, align 4, !tbaa !100
  %81 = icmp eq i32 %80, 3
  br i1 %81, label %82, label %84

82:                                               ; preds = %79
  %83 = load ptr, ptr %11, align 8, !tbaa !103
  call void @g_free(ptr noundef %83) #15
  br label %84

84:                                               ; preds = %82, %79
  call void @llvm.lifetime.end.p0(i64 8, ptr nonnull %11) #15
  call void @llvm.lifetime.end.p0(i64 8, ptr nonnull %10) #15
  br label %85

85:                                               ; preds = %84, %35, %32, %30
  call void @llvm.lifetime.end.p0(i64 4, ptr nonnull %9) #15
  call void @llvm.lifetime.end.p0(i64 4, ptr nonnull %8) #15
  call void @llvm.lifetime.end.p0(i64 8, ptr nonnull %7) #15
  br label %86

.critedge:                                        ; preds = %27
  call void @llvm.lifetime.end.p0(i64 8, ptr nonnull %7) #15
  br label %86

86:                                               ; preds = %85, %.critedge, %19, %4
  call void @llvm.lifetime.end.p0(i64 8, ptr nonnull %5) #15
  ret void
}